---
triple:          'arm64-apple-darwin'
binary-path:     '/Users/sourov/projects/c-programming/contest/Binary Search/k'
relocations:
  - { offsetInCU: 0x2D77, offset: 0x2D77, size: 0x8, addend: 0x0, symName: __ZNSt3__111__sift_downB7v160006INS_17_ClassicAlgPolicyERNS_7greaterIxEEPxEEvT1_OT0_NS_15iterator_traitsIS6_E15difference_typeES6_, symObjAddr: 0x994, symBinAddr: 0x1000016CC, symSize: 0x20C }
  - { offsetInCU: 0x2E50, offset: 0x2E50, size: 0x8, addend: 0x0, symName: __ZNSt3__117__floyd_sift_downB7v160006INS_17_ClassicAlgPolicyERNS_7greaterIxEEPxEET1_S6_OT0_NS_15iterator_traitsIS6_E15difference_typeE, symObjAddr: 0xDB8, symBinAddr: 0x100001AF0, symSize: 0x100 }
  - { offsetInCU: 0x2EE8, offset: 0x2EE8, size: 0x8, addend: 0x0, symName: __ZNSt3__111__introsortINS_17_ClassicAlgPolicyERNS_7greaterIxEEPxEEvT1_S6_T0_NS_15iterator_traitsIS6_E15difference_typeE, symObjAddr: 0x103C, symBinAddr: 0x100001D74, symSize: 0x6B8 }
  - { offsetInCU: 0x3043, offset: 0x3043, size: 0x8, addend: 0x0, symName: __ZNSt3__118__insertion_sort_3B7v160006INS_17_ClassicAlgPolicyERNS_7greaterIxEEPxEEvT1_S6_T0_, symObjAddr: 0x188C, symBinAddr: 0x1000025C4, symSize: 0x144 }
  - { offsetInCU: 0x3116, offset: 0x3116, size: 0x8, addend: 0x0, symName: __ZNSt3__127__insertion_sort_incompleteIRNS_7greaterIxEEPxEEbT0_S5_T_, symObjAddr: 0x1BFC, symBinAddr: 0x100002934, symSize: 0x310 }
  - { offsetInCU: 0x321D, offset: 0x321D, size: 0x8, addend: 0x0, symName: __ZNSt3__124__put_character_sequenceB7v160006IcNS_11char_traitsIcEEEERNS_13basic_ostreamIT_T0_EES7_PKS4_m, symObjAddr: 0x23E4, symBinAddr: 0x10000311C, symSize: 0x1F4 }
  - { offsetInCU: 0x4B8C, offset: 0x4B8C, size: 0x8, addend: 0x0, symName: __ZNSt3__14sortB7v160006IPxNS_7greaterIxEEEEvT_S4_T0_, symObjAddr: 0x42C, symBinAddr: 0x100001164, symSize: 0x30 }
  - { offsetInCU: 0x4BE6, offset: 0x4BE6, size: 0x8, addend: 0x0, symName: __ZNSt3__13minB7v160006IxEERKT_S3_S3_, symObjAddr: 0x45C, symBinAddr: 0x100001194, symSize: 0x2C }
  - { offsetInCU: 0x4C29, offset: 0x4C29, size: 0x8, addend: 0x0, symName: __ZNSt3__1lsB7v160006INS_11char_traitsIcEEEERNS_13basic_ostreamIcT_EES6_PKc, symObjAddr: 0x488, symBinAddr: 0x1000011C0, symSize: 0x48 }
  - { offsetInCU: 0x4C6F, offset: 0x4C6F, size: 0x8, addend: 0x0, symName: __ZNSt3__111__sort_implB7v160006INS_17_ClassicAlgPolicyEPxNS_7greaterIxEEEEvT0_S5_RT1_, symObjAddr: 0x580, symBinAddr: 0x1000012B8, symSize: 0x8C }
  - { offsetInCU: 0x4D16, offset: 0x4D16, size: 0x8, addend: 0x0, symName: __ZNSt3__123__debug_randomize_rangeB7v160006INS_17_ClassicAlgPolicyEPxS2_EEvT0_T1_, symObjAddr: 0x60C, symBinAddr: 0x100001344, symSize: 0x14 }
  - { offsetInCU: 0x4D67, offset: 0x4D67, size: 0x8, addend: 0x0, symName: __ZNSt3__130__libcpp_is_constant_evaluatedB7v160006Ev, symObjAddr: 0x620, symBinAddr: 0x100001358, symSize: 0xC }
  - { offsetInCU: 0x4D84, offset: 0x4D84, size: 0x8, addend: 0x0, symName: __ZNSt3__114__partial_sortB7v160006INS_17_ClassicAlgPolicyENS_7greaterIxEEPxS4_EET1_S5_S5_T2_RT0_, symObjAddr: 0x62C, symBinAddr: 0x100001364, symSize: 0x94 }
  - { offsetInCU: 0x4E0C, offset: 0x4E0C, size: 0x8, addend: 0x0, symName: __ZNSt3__16__sortIRNS_7greaterIxEEPxEEvT0_S5_T_, symObjAddr: 0x6C0, symBinAddr: 0x1000013F8, symSize: 0x68 }
  - { offsetInCU: 0x4E9C, offset: 0x4E9C, size: 0x8, addend: 0x0, symName: __ZNSt3__113__unwrap_iterB7v160006IPxNS_18__unwrap_iter_implIS1_Lb1EEELi0EEEDTclsrT0_8__unwrapclsr3stdE7declvalIT_EEEES5_, symObjAddr: 0x728, symBinAddr: 0x100001460, symSize: 0x24 }
  - { offsetInCU: 0x4F7A, offset: 0x4F7A, size: 0x8, addend: 0x0, symName: __ZNSt3__119__partial_sort_implB7v160006INS_17_ClassicAlgPolicyERNS_7greaterIxEEPxS5_EET1_S6_S6_T2_OT0_, symObjAddr: 0x764, symBinAddr: 0x10000149C, symSize: 0x110 }
  - { offsetInCU: 0x5010, offset: 0x5010, size: 0x8, addend: 0x0, symName: __ZNSt3__111__make_heapB7v160006INS_17_ClassicAlgPolicyERNS_7greaterIxEEPxEEvT1_S6_OT0_, symObjAddr: 0x874, symBinAddr: 0x1000015AC, symSize: 0xB8 }
  - { offsetInCU: 0x511C, offset: 0x511C, size: 0x8, addend: 0x0, symName: __ZNSt3__111__sort_heapB7v160006INS_17_ClassicAlgPolicyERNS_7greaterIxEEPxEEvT1_S6_OT0_, symObjAddr: 0xBA0, symBinAddr: 0x1000018D8, symSize: 0x90 }
  - { offsetInCU: 0x51B0, offset: 0x51B0, size: 0x8, addend: 0x0, symName: __ZNSt3__19iter_swapB7v160006IPxS1_EEvT_T0_, symObjAddr: 0xC30, symBinAddr: 0x100001968, symSize: 0x2C }
  - { offsetInCU: 0x51F8, offset: 0x51F8, size: 0x8, addend: 0x0, symName: __ZNSt3__14swapB7v160006IxEEvRT_S2_, symObjAddr: 0xC5C, symBinAddr: 0x100001994, symSize: 0x3C }
  - { offsetInCU: 0x526D, offset: 0x526D, size: 0x8, addend: 0x0, symName: __ZNSt3__110__pop_heapB7v160006INS_17_ClassicAlgPolicyENS_7greaterIxEEPxEEvT1_S5_RT0_NS_15iterator_traitsIS5_E15difference_typeE, symObjAddr: 0xCC4, symBinAddr: 0x1000019FC, symSize: 0xF4 }
  - { offsetInCU: 0x531D, offset: 0x531D, size: 0x8, addend: 0x0, symName: __ZNSt3__19__sift_upB7v160006INS_17_ClassicAlgPolicyERNS_7greaterIxEEPxEEvT1_S6_OT0_NS_15iterator_traitsIS6_E15difference_typeE, symObjAddr: 0xEB8, symBinAddr: 0x100001BF0, symSize: 0x11C }
  - { offsetInCU: 0x53CD, offset: 0x53CD, size: 0x8, addend: 0x0, symName: __ZNSt3__17__log2iB7v160006IlEET_S1_, symObjAddr: 0xFD4, symBinAddr: 0x100001D0C, symSize: 0x54 }
  - { offsetInCU: 0x5437, offset: 0x5437, size: 0x8, addend: 0x0, symName: __ZNSt3__112__libcpp_clzB7v160006Em, symObjAddr: 0x170C, symBinAddr: 0x100002444, symSize: 0x1C }
  - { offsetInCU: 0x5463, offset: 0x5463, size: 0x8, addend: 0x0, symName: __ZNSt3__124__sort3_maybe_branchlessB7v160006INS_17_ClassicAlgPolicyERNS_7greaterIxEEPxEENS_9enable_ifIXsr21__use_branchless_sortIT0_T1_EE5valueEvE4typeES8_S8_S8_S7_, symObjAddr: 0x1728, symBinAddr: 0x100002460, symSize: 0x4C }
  - { offsetInCU: 0x54D0, offset: 0x54D0, size: 0x8, addend: 0x0, symName: __ZNSt3__124__sort4_maybe_branchlessB7v160006INS_17_ClassicAlgPolicyERNS_7greaterIxEEPxEENS_9enable_ifIXsr21__use_branchless_sortIT0_T1_EE5valueEvE4typeES8_S8_S8_S8_S7_, symObjAddr: 0x1774, symBinAddr: 0x1000024AC, symSize: 0x7C }
  - { offsetInCU: 0x554D, offset: 0x554D, size: 0x8, addend: 0x0, symName: __ZNSt3__124__sort5_maybe_branchlessB7v160006INS_17_ClassicAlgPolicyERNS_7greaterIxEEPxEENS_9enable_ifIXsr21__use_branchless_sortIT0_T1_EE5valueEvE4typeES8_S8_S8_S8_S8_S7_, symObjAddr: 0x17F0, symBinAddr: 0x100002528, symSize: 0x9C }
  - { offsetInCU: 0x55DD, offset: 0x55DD, size: 0x8, addend: 0x0, symName: __ZNSt3__114__partial_sortB7v160006INS_17_ClassicAlgPolicyERNS_7greaterIxEEPxS5_EET1_S6_S6_T2_RT0_, symObjAddr: 0x19D0, symBinAddr: 0x100002708, symSize: 0x94 }
  - { offsetInCU: 0x5665, offset: 0x5665, size: 0x8, addend: 0x0, symName: __ZNSt3__119__sort5_wrap_policyB7v160006INS_17_ClassicAlgPolicyERNS_7greaterIxEEPxEEjT1_S6_S6_S6_S6_T0_, symObjAddr: 0x1A64, symBinAddr: 0x10000279C, symSize: 0x54 }
  - { offsetInCU: 0x570B, offset: 0x570B, size: 0x8, addend: 0x0, symName: __ZNSt3__17__sort3B7v160006INS_17_ClassicAlgPolicyERNS_7greaterIxEEPxEEjT1_S6_S6_T0_, symObjAddr: 0x1AB8, symBinAddr: 0x1000027F0, symSize: 0x144 }
  - { offsetInCU: 0x578A, offset: 0x578A, size: 0x8, addend: 0x0, symName: __ZNSt3__111__cond_swapB7v160006IRNS_7greaterIxEEPxEEvT0_S5_T_, symObjAddr: 0x1F24, symBinAddr: 0x100002C5C, symSize: 0xB8 }
  - { offsetInCU: 0x5807, offset: 0x5807, size: 0x8, addend: 0x0, symName: __ZNSt3__123__partially_sorted_swapB7v160006IRNS_7greaterIxEEPxEEvT0_S5_S5_T_, symObjAddr: 0x1FDC, symBinAddr: 0x100002D14, symSize: 0x138 }
  - { offsetInCU: 0x5892, offset: 0x5892, size: 0x8, addend: 0x0, symName: __ZNSt3__17__sort5IRNS_7greaterIxEEPxEEjT0_S5_S5_S5_S5_T_, symObjAddr: 0x2114, symBinAddr: 0x100002E4C, symSize: 0x12C }
  - { offsetInCU: 0x593D, offset: 0x593D, size: 0x8, addend: 0x0, symName: __ZNSt3__17__sort4B7v160006INS_17_ClassicAlgPolicyERNS_7greaterIxEEPxEEjT1_S6_S6_S6_T0_, symObjAddr: 0x2240, symBinAddr: 0x100002F78, symSize: 0xE4 }
  - { offsetInCU: 0x5A1D, offset: 0x5A1D, size: 0x8, addend: 0x0, symName: __ZNSt3__112__to_addressB7v160006IxEEPT_S2_, symObjAddr: 0x2348, symBinAddr: 0x100003080, symSize: 0x14 }
  - { offsetInCU: 0x5A52, offset: 0x5A52, size: 0x8, addend: 0x0, symName: __ZNSt3__13minB7v160006IxNS_6__lessIxxEEEERKT_S5_S5_T0_, symObjAddr: 0x235C, symBinAddr: 0x100003094, symSize: 0x54 }
  - { offsetInCU: 0x5AE7, offset: 0x5AE7, size: 0x8, addend: 0x0, symName: __ZNSt3__116__pad_and_outputB7v160006IcNS_11char_traitsIcEEEENS_19ostreambuf_iteratorIT_T0_EES6_PKS4_S8_S8_RNS_8ios_baseES4_, symObjAddr: 0x263C, symBinAddr: 0x100003374, symSize: 0x248 }
  - { offsetInCU: 0x5BB6, offset: 0x5BB6, size: 0x8, addend: 0x0, symName: __ZNSt3__119__debug_db_insert_cB7v160006INS_12basic_stringIcNS_11char_traitsIcEENS_9allocatorIcEEEEEEvPT_, symObjAddr: 0x2B04, symBinAddr: 0x10000383C, symSize: 0x10 }
  - { offsetInCU: 0x5BE7, offset: 0x5BE7, size: 0x8, addend: 0x0, symName: __ZNSt3__112__to_addressB7v160006IKcEEPT_S3_, symObjAddr: 0x2BD0, symBinAddr: 0x100003908, symSize: 0x14 }
  - { offsetInCU: 0x5C4F, offset: 0x5C4F, size: 0x8, addend: 0x0, symName: __ZNSt3__19use_facetB7v160006INS_5ctypeIcEEEERKT_RKNS_6localeE, symObjAddr: 0x2EA8, symBinAddr: 0x100003BE0, symSize: 0x2C }
  - { offsetInCU: 0x611E, offset: 0x611E, size: 0x8, addend: 0x0, symName: __ZNSt3__118__constexpr_strlenB7v160006EPKc, symObjAddr: 0x2F40, symBinAddr: 0x100003C78, symSize: 0x24 }
  - { offsetInCU: 0x87E8, offset: 0x87E8, size: 0x8, addend: 0x0, symName: __Z5solvev, symObjAddr: 0x0, symBinAddr: 0x100000D38, symSize: 0x42C }
  - { offsetInCU: 0x894C, offset: 0x894C, size: 0x8, addend: 0x0, symName: _main, symObjAddr: 0x4D0, symBinAddr: 0x100001208, symSize: 0x84 }
  - { offsetInCU: 0x8974, offset: 0x8974, size: 0x8, addend: 0x0, symName: __ZNSt3__19basic_iosIcNS_11char_traitsIcEEE3tieB7v160006EPNS_13basic_ostreamIcS2_EE, symObjAddr: 0x554, symBinAddr: 0x10000128C, symSize: 0x2C }
  - { offsetInCU: 0x89BA, offset: 0x89BA, size: 0x8, addend: 0x0, symName: __ZNSt3__18_IterOpsINS_17_ClassicAlgPolicyEE4nextB7v160006IPxEET_S5_S5_, symObjAddr: 0x74C, symBinAddr: 0x100001484, symSize: 0x18 }
  - { offsetInCU: 0x8A05, offset: 0x8A05, size: 0x8, addend: 0x0, symName: __ZNKSt3__17greaterIxEclB7v160006ERKxS3_, symObjAddr: 0x92C, symBinAddr: 0x100001664, symSize: 0x34 }
  - { offsetInCU: 0x8A4E, offset: 0x8A4E, size: 0x8, addend: 0x0, symName: __ZNSt3__18_IterOpsINS_17_ClassicAlgPolicyEE9iter_swapB7v160006IRPxS5_EEvOT_OT0_, symObjAddr: 0x960, symBinAddr: 0x100001698, symSize: 0x34 }
  - { offsetInCU: 0x8A96, offset: 0x8A96, size: 0x8, addend: 0x0, symName: __ZNSt3__18_IterOpsINS_17_ClassicAlgPolicyEE11__iter_moveB7v160006IRPxEENS_9enable_ifIXsr12is_referenceIDTdeclsr3stdE7declvalIRT_EEEEE5valueEDTclsr3stdE4movedeclsr3stdE7declvalIS8_EEEEE4typeEOS7_, symObjAddr: 0xC98, symBinAddr: 0x1000019D0, symSize: 0x28 }
  - { offsetInCU: 0x8AC2, offset: 0x8AC2, size: 0x8, addend: 0x0, symName: __ZNSt3__18_IterOpsINS_17_ClassicAlgPolicyEE25__validate_iter_referenceB7v160006IRPxEEvv, symObjAddr: 0xCC0, symBinAddr: 0x1000019F8, symSize: 0x4 }
  - { offsetInCU: 0x8AE5, offset: 0x8AE5, size: 0x8, addend: 0x0, symName: __ZNSt3__116_UnwrapAlgPolicyIRNS_7greaterIxEEE10__get_compB7v160006ES3_, symObjAddr: 0x1028, symBinAddr: 0x100001D60, symSize: 0x14 }
  - { offsetInCU: 0x8B08, offset: 0x8B08, size: 0x8, addend: 0x0, symName: __ZNSt3__118__unwrap_iter_implIPxLb1EE8__unwrapB7v160006ES1_, symObjAddr: 0x2324, symBinAddr: 0x10000305C, symSize: 0x24 }
  - { offsetInCU: 0x8B35, offset: 0x8B35, size: 0x8, addend: 0x0, symName: __ZNKSt3__16__lessIxxEclB7v160006ERKxS3_, symObjAddr: 0x23B0, symBinAddr: 0x1000030E8, symSize: 0x34 }
  - { offsetInCU: 0x8B77, offset: 0x8B77, size: 0x8, addend: 0x0, symName: __ZNSt3__111char_traitsIcE6lengthEPKc, symObjAddr: 0x25D8, symBinAddr: 0x100003310, symSize: 0x48 }
  - { offsetInCU: 0x8BB8, offset: 0x8BB8, size: 0x8, addend: 0x0, symName: __ZNKSt3__113basic_ostreamIcNS_11char_traitsIcEEE6sentrycvbB7v160006Ev, symObjAddr: 0x2620, symBinAddr: 0x100003358, symSize: 0x1C }
  - { offsetInCU: 0x8BDE, offset: 0x8BDE, size: 0x8, addend: 0x0, symName: __ZNSt3__119ostreambuf_iteratorIcNS_11char_traitsIcEEEC1B7v160006ERNS_13basic_ostreamIcS2_EE, symObjAddr: 0x2884, symBinAddr: 0x1000035BC, symSize: 0x34 }
  - { offsetInCU: 0x8C16, offset: 0x8C16, size: 0x8, addend: 0x0, symName: __ZNKSt3__18ios_base5flagsB7v160006Ev, symObjAddr: 0x28B8, symBinAddr: 0x1000035F0, symSize: 0x18 }
  - { offsetInCU: 0x8C3E, offset: 0x8C3E, size: 0x8, addend: 0x0, symName: __ZNKSt3__19basic_iosIcNS_11char_traitsIcEEE4fillB7v160006Ev, symObjAddr: 0x28D0, symBinAddr: 0x100003608, symSize: 0x64 }
  - { offsetInCU: 0x8C66, offset: 0x8C66, size: 0x8, addend: 0x0, symName: __ZNKSt3__119ostreambuf_iteratorIcNS_11char_traitsIcEEE6failedB7v160006Ev, symObjAddr: 0x2934, symBinAddr: 0x10000366C, symSize: 0x24 }
  - { offsetInCU: 0x8C8C, offset: 0x8C8C, size: 0x8, addend: 0x0, symName: __ZNSt3__19basic_iosIcNS_11char_traitsIcEEE8setstateB7v160006Ej, symObjAddr: 0x2958, symBinAddr: 0x100003690, symSize: 0x2C }
  - { offsetInCU: 0x8CC1, offset: 0x8CC1, size: 0x8, addend: 0x0, symName: __ZNKSt3__18ios_base5widthB7v160006Ev, symObjAddr: 0x2990, symBinAddr: 0x1000036C8, symSize: 0x18 }
  - { offsetInCU: 0x8CE9, offset: 0x8CE9, size: 0x8, addend: 0x0, symName: __ZNSt3__115basic_streambufIcNS_11char_traitsIcEEE5sputnB7v160006EPKcl, symObjAddr: 0x29A8, symBinAddr: 0x1000036E0, symSize: 0x3C }
  - { offsetInCU: 0x8D2B, offset: 0x8D2B, size: 0x8, addend: 0x0, symName: __ZNSt3__112basic_stringIcNS_11char_traitsIcEENS_9allocatorIcEEEC1B7v160006Emc, symObjAddr: 0x29E4, symBinAddr: 0x10000371C, symSize: 0x3C }
  - { offsetInCU: 0x8D73, offset: 0x8D73, size: 0x8, addend: 0x0, symName: __ZNKSt3__112basic_stringIcNS_11char_traitsIcEENS_9allocatorIcEEE4dataB7v160006Ev, symObjAddr: 0x2A20, symBinAddr: 0x100003758, symSize: 0x28 }
  - { offsetInCU: 0x8D99, offset: 0x8D99, size: 0x8, addend: 0x0, symName: __ZNSt3__18ios_base5widthB7v160006El, symObjAddr: 0x2A48, symBinAddr: 0x100003780, symSize: 0x2C }
  - { offsetInCU: 0x8DDF, offset: 0x8DDF, size: 0x8, addend: 0x0, symName: __ZNSt3__112basic_stringIcNS_11char_traitsIcEENS_9allocatorIcEEEC2B7v160006Emc, symObjAddr: 0x2A74, symBinAddr: 0x1000037AC, symSize: 0x54 }
  - { offsetInCU: 0x8E2C, offset: 0x8E2C, size: 0x8, addend: 0x0, symName: __ZNSt3__117__compressed_pairINS_12basic_stringIcNS_11char_traitsIcEENS_9allocatorIcEEE5__repES5_EC1B7v160006INS_18__default_init_tagESA_EEOT_OT0_, symObjAddr: 0x2AC8, symBinAddr: 0x100003800, symSize: 0x3C }
  - { offsetInCU: 0x8E84, offset: 0x8E84, size: 0x8, addend: 0x0, symName: __ZNSt3__117__compressed_pairINS_12basic_stringIcNS_11char_traitsIcEENS_9allocatorIcEEE5__repES5_EC2B7v160006INS_18__default_init_tagESA_EEOT_OT0_, symObjAddr: 0x2B14, symBinAddr: 0x10000384C, symSize: 0x3C }
  - { offsetInCU: 0x8EDC, offset: 0x8EDC, size: 0x8, addend: 0x0, symName: __ZNSt3__122__compressed_pair_elemINS_12basic_stringIcNS_11char_traitsIcEENS_9allocatorIcEEE5__repELi0ELb0EEC2B7v160006ENS_18__default_init_tagE, symObjAddr: 0x2B50, symBinAddr: 0x100003888, symSize: 0x14 }
  - { offsetInCU: 0x8F11, offset: 0x8F11, size: 0x8, addend: 0x0, symName: __ZNSt3__122__compressed_pair_elemINS_9allocatorIcEELi1ELb1EEC2B7v160006ENS_18__default_init_tagE, symObjAddr: 0x2B64, symBinAddr: 0x10000389C, symSize: 0x2C }
  - { offsetInCU: 0x8F46, offset: 0x8F46, size: 0x8, addend: 0x0, symName: __ZNSt3__19allocatorIcEC2B7v160006Ev, symObjAddr: 0x2B90, symBinAddr: 0x1000038C8, symSize: 0x2C }
  - { offsetInCU: 0x8F70, offset: 0x8F70, size: 0x8, addend: 0x0, symName: __ZNSt3__116__non_trivial_ifILb1ENS_9allocatorIcEEEC2B7v160006Ev, symObjAddr: 0x2BBC, symBinAddr: 0x1000038F4, symSize: 0x14 }
  - { offsetInCU: 0x8F9A, offset: 0x8F9A, size: 0x8, addend: 0x0, symName: __ZNKSt3__112basic_stringIcNS_11char_traitsIcEENS_9allocatorIcEEE13__get_pointerB7v160006Ev, symObjAddr: 0x2BE4, symBinAddr: 0x10000391C, symSize: 0x54 }
  - { offsetInCU: 0x8FC0, offset: 0x8FC0, size: 0x8, addend: 0x0, symName: __ZNKSt3__112basic_stringIcNS_11char_traitsIcEENS_9allocatorIcEEE9__is_longB7v160006Ev, symObjAddr: 0x2C38, symBinAddr: 0x100003970, symSize: 0x74 }
  - { offsetInCU: 0x8FE6, offset: 0x8FE6, size: 0x8, addend: 0x0, symName: __ZNKSt3__112basic_stringIcNS_11char_traitsIcEENS_9allocatorIcEEE18__get_long_pointerB7v160006Ev, symObjAddr: 0x2CAC, symBinAddr: 0x1000039E4, symSize: 0x28 }
  - { offsetInCU: 0x900C, offset: 0x900C, size: 0x8, addend: 0x0, symName: __ZNKSt3__112basic_stringIcNS_11char_traitsIcEENS_9allocatorIcEEE19__get_short_pointerB7v160006Ev, symObjAddr: 0x2CD4, symBinAddr: 0x100003A0C, symSize: 0x28 }
  - { offsetInCU: 0x9032, offset: 0x9032, size: 0x8, addend: 0x0, symName: __ZNKSt3__117__compressed_pairINS_12basic_stringIcNS_11char_traitsIcEENS_9allocatorIcEEE5__repES5_E5firstB7v160006Ev, symObjAddr: 0x2CFC, symBinAddr: 0x100003A34, symSize: 0x24 }
  - { offsetInCU: 0x9058, offset: 0x9058, size: 0x8, addend: 0x0, symName: __ZNKSt3__122__compressed_pair_elemINS_12basic_stringIcNS_11char_traitsIcEENS_9allocatorIcEEE5__repELi0ELb0EE5__getB7v160006Ev, symObjAddr: 0x2D20, symBinAddr: 0x100003A58, symSize: 0x14 }
  - { offsetInCU: 0x907E, offset: 0x907E, size: 0x8, addend: 0x0, symName: __ZNSt3__114pointer_traitsIPKcE10pointer_toB7v160006ERS1_, symObjAddr: 0x2D34, symBinAddr: 0x100003A6C, symSize: 0x14 }
  - { offsetInCU: 0x90A1, offset: 0x90A1, size: 0x8, addend: 0x0, symName: __ZNSt3__119ostreambuf_iteratorIcNS_11char_traitsIcEEEC2B7v160006ERNS_13basic_ostreamIcS2_EE, symObjAddr: 0x2D48, symBinAddr: 0x100003A80, symSize: 0x68 }
  - { offsetInCU: 0x90D9, offset: 0x90D9, size: 0x8, addend: 0x0, symName: __ZNKSt3__19basic_iosIcNS_11char_traitsIcEEE5rdbufB7v160006Ev, symObjAddr: 0x2DB0, symBinAddr: 0x100003AE8, symSize: 0x24 }
  - { offsetInCU: 0x9101, offset: 0x9101, size: 0x8, addend: 0x0, symName: __ZNKSt3__18ios_base5rdbufB7v160006Ev, symObjAddr: 0x2DD4, symBinAddr: 0x100003B0C, symSize: 0x18 }
  - { offsetInCU: 0x9127, offset: 0x9127, size: 0x8, addend: 0x0, symName: __ZNSt3__111char_traitsIcE11eq_int_typeEii, symObjAddr: 0x2DEC, symBinAddr: 0x100003B24, symSize: 0x28 }
  - { offsetInCU: 0x9158, offset: 0x9158, size: 0x8, addend: 0x0, symName: __ZNSt3__111char_traitsIcE3eofEv, symObjAddr: 0x2E14, symBinAddr: 0x100003B4C, symSize: 0x8 }
  - { offsetInCU: 0x916C, offset: 0x916C, size: 0x8, addend: 0x0, symName: __ZNKSt3__19basic_iosIcNS_11char_traitsIcEEE5widenB7v160006Ec, symObjAddr: 0x2E1C, symBinAddr: 0x100003B54, symSize: 0x8C }
  - { offsetInCU: 0x91DA, offset: 0x91DA, size: 0x8, addend: 0x0, symName: __ZNKSt3__15ctypeIcE5widenB7v160006Ec, symObjAddr: 0x2ED4, symBinAddr: 0x100003C0C, symSize: 0x38 }
  - { offsetInCU: 0x920F, offset: 0x920F, size: 0x8, addend: 0x0, symName: __ZNSt3__18ios_base8setstateB7v160006Ej, symObjAddr: 0x2F0C, symBinAddr: 0x100003C44, symSize: 0x34 }
...
